; Function Attrs: mustprogress nofree norecurse nosync nounwind willreturn memory(readwrite, inaccessiblemem: none) uwtable
define void @_ZNK5Ipopt17SumSymMatrixSpace12GetTermSpaceEi(ptr dead_on_unwind noalias writable writeonly sret(%"class.Ipopt::SmartPtr.26") align 8 captures(none) initializes((0, 8)) %0, ptr noundef nonnull readonly align 8 captures(none) dereferenceable(48) %1, i32 noundef %2) local_unnamed_addr #9 align 2 {
  %4 = icmp sgt i32 %2, -1
  br i1 %4, label %5, label %_ZN5Ipopt8SmartPtrIKNS_14SymMatrixSpaceEEC2ERKS3_.exit

5:                                                ; preds = %3
  %6 = getelementptr inbounds nuw i8, ptr %1, i64 24
  %7 = getelementptr inbounds nuw i8, ptr %1, i64 32
  %8 = load ptr, ptr %7, align 8, !tbaa !80
  %9 = load ptr, ptr %6, align 8, !tbaa !81
  %10 = ptrtoint ptr %8 to i64
  %11 = ptrtoint ptr %9 to i64
  %12 = sub i64 %10, %11
  %13 = lshr exact i64 %12, 3
  %14 = trunc i64 %13 to i32
  %15 = icmp slt i32 %2, %14
  br i1 %15, label %16, label %_ZN5Ipopt8SmartPtrIKNS_14SymMatrixSpaceEEC2ERKS3_.exit

16:                                               ; preds = %5
  %17 = zext nneg i32 %2 to i64
  %18 = getelementptr inbounds nuw %"class.Ipopt::SmartPtr.26", ptr %9, i64 %17
  %19 = load ptr, ptr %18, align 8, !tbaa !82
  %.not.i.i.i = icmp eq ptr %19, null
  br i1 %.not.i.i.i, label %_ZN5Ipopt8SmartPtrIKNS_14SymMatrixSpaceEEC2ERKS3_.exit, label %20

20:                                               ; preds = %16
  %21 = getelementptr inbounds nuw i8, ptr %19, i64 8
  %22 = load i32, ptr %21, align 8, !tbaa !3
  %23 = add nsw i32 %22, 1
  store i32 %23, ptr %21, align 8, !tbaa !3
  br label %_ZN5Ipopt8SmartPtrIKNS_14SymMatrixSpaceEEC2ERKS3_.exit

_ZN5Ipopt8SmartPtrIKNS_14SymMatrixSpaceEEC2ERKS3_.exit: ; preds = %3, %5, %20, %16
  %storemerge = phi ptr [ null, %16 ], [ %19, %20 ], [ null, %5 ], [ null, %3 ]
  store ptr %storemerge, ptr %0, align 8, !tbaa !82
  ret void
}